target datalayout = "e-m:e-p270:32:32-p271:32:32-p272:64:64-i64:64-i128:128-f80:128-n8:16:32:64-S128"
target triple = "x86_64-pc-linux-gnu"

%struct.CDSFileMapHeaderBase = type { %struct.GenericCDSFileMapHeader, [4 x %struct.CDSFileMapRegion] }
%struct.GenericCDSFileMapHeader = type { i32, i32, i32, i32, i32, i32 }
%struct.CDSFileMapRegion = type { i32, i32, i32, i32, i32, i32, i64, i64, i64, i64, i64, i64, i64, ptr }

; Function Attrs: mustprogress nounwind uwtable
define linkonce_odr hidden noundef i32 @_ZNK13FileMapHeader22base_archive_name_sizeEv(ptr noundef nonnull align 8 dereferenceable(792) %0) #1 comdat align 2 {
  %2 = alloca ptr, align 8
  store ptr %0, ptr %2, align 8
  %3 = load ptr, ptr %2, align 8
  %4 = getelementptr inbounds %struct.CDSFileMapHeaderBase, ptr %3, i32 0, i32 0
  %5 = getelementptr inbounds %struct.GenericCDSFileMapHeader, ptr %4, i32 0, i32 5
  %6 = load i32, ptr %5, align 4
  ret i32 %6
}

; Function Attrs: mustprogress nounwind uwtable
define linkonce_odr hidden noundef i32 @_ZNK13FileMapHeader24base_archive_name_offsetEv(ptr noundef nonnull align 8 dereferenceable(792) %0) #1 comdat align 2 {
  %2 = alloca ptr, align 8
  store ptr %0, ptr %2, align 8
  %3 = load ptr, ptr %2, align 8
  %4 = getelementptr inbounds %struct.CDSFileMapHeaderBase, ptr %3, i32 0, i32 0
  %5 = getelementptr inbounds %struct.GenericCDSFileMapHeader, ptr %4, i32 0, i32 4
  %6 = load i32, ptr %5, align 8
  ret i32 %6
}

; Function Attrs: mustprogress nounwind uwtable
define hidden void @_ZN13FileMapHeader22copy_base_archive_nameEPKc(ptr noundef nonnull align 8 dereferenceable(792) %0, ptr noundef %1) #1 align 2 {
  %3 = alloca ptr, align 8
  %4 = alloca ptr, align 8
  store ptr %0, ptr %3, align 8
  store ptr %1, ptr %4, align 8
  %5 = load ptr, ptr %3, align 8
  %6 = call noundef i32 @_ZNK13FileMapHeader24base_archive_name_offsetEv(ptr noundef nonnull align 8 dereferenceable(792) %5)
  %7 = zext i32 %6 to i64
  %8 = getelementptr inbounds i8, ptr %5, i64 %7
  %9 = load ptr, ptr %4, align 8
  %10 = call noundef i32 @_ZNK13FileMapHeader22base_archive_name_sizeEv(ptr noundef nonnull align 8 dereferenceable(792) %5)
  %11 = zext i32 %10 to i64
  call void @llvm.memcpy.p0.p0.i64(ptr align 1 %8, ptr align 1 %9, i64 %11, i1 false)
  ret void
}