; Function Attrs: mustprogress nofree norecurse nosync nounwind willreturn memory(argmem: readwrite) uwtable
define hidden void @_ZN13FileMapHeader22copy_base_archive_nameEPKc(ptr nocapture noundef nonnull align 8 dereferenceable(792) %0, ptr nocapture noundef readonly %1) local_unnamed_addr #5 align 2 {
  %3 = getelementptr inbounds i8, ptr %0, i64 16
  %4 = load i32, ptr %3, align 8
  %5 = zext i32 %4 to i64
  %6 = getelementptr inbounds i8, ptr %0, i64 %5
  %7 = getelementptr inbounds i8, ptr %0, i64 20
  %8 = load i32, ptr %7, align 4
  %9 = zext i32 %8 to i64
  tail call void @llvm.memcpy.p0.p0.i64(ptr nonnull align 1 %6, ptr align 1 %1, i64 %9, i1 false)
  ret void
}